; Function Attrs: mustprogress nofree norecurse nosync nounwind willreturn memory(argmem: write) uwtable
define noundef i32 @tdefl_init(ptr noundef %0, ptr noundef %1, ptr noundef %2, i32 noundef %3) local_unnamed_addr #17 {
  store ptr %1, ptr %0, align 8
  %5 = getelementptr inbounds i8, ptr %0, i64 8
  store ptr %2, ptr %5, align 8
  %6 = getelementptr inbounds i8, ptr %0, i64 16
  store i32 %3, ptr %6, align 8
  %7 = and i32 %3, 4095
  %8 = trunc i32 %7 to i16
  %.lhs.trunc = add nuw nsw i16 %8, 2
  %9 = udiv i16 %.lhs.trunc, 3
  %narrow = add nuw nsw i16 %9, 1
  %10 = zext nneg i16 %narrow to i32
  %11 = getelementptr inbounds i8, ptr %0, i64 20
  store i32 %10, ptr %11, align 4
  %12 = lshr i32 %3, 14
  %.lobit = and i32 %12, 1
  %13 = getelementptr inbounds i8, ptr %0, i64 28
  store i32 %.lobit, ptr %13, align 4
  %14 = lshr i32 %7, 2
  %15 = trunc i32 %14 to i16
  %.lhs.trunc49 = add nuw nsw i16 %15, 2
  %16 = udiv i16 %.lhs.trunc49, 3
  %narrow51 = add nuw nsw i16 %16, 1
  %17 = zext nneg i16 %narrow51 to i32
  %18 = getelementptr inbounds i8, ptr %0, i64 24
  store i32 %17, ptr %18, align 4
  %19 = and i32 %3, 32768
  %.not = icmp eq i32 %19, 0
  br i1 %.not, label %20, label %22

20:                                               ; preds = %4
  %21 = getelementptr inbounds i8, ptr %0, i64 168618
  tail call void @llvm.memset.p0.i64(ptr noundef nonnull align 2 dereferenceable(65536) %21, i8 0, i64 65536, i1 false)
  br label %22

22:                                               ; preds = %20, %4
  %23 = getelementptr inbounds i8, ptr %0, i64 84
  %24 = getelementptr inbounds i8, ptr %0, i64 112
  %25 = getelementptr inbounds i8, ptr %0, i64 37546
  %26 = getelementptr inbounds i8, ptr %0, i64 37547
  %27 = getelementptr inbounds i8, ptr %0, i64 48
  tail call void @llvm.memset.p0.i64(ptr noundef nonnull align 4 dereferenceable(16) %23, i8 0, i64 16, i1 false)
  tail call void @llvm.memset.p0.i64(ptr noundef nonnull align 8 dereferenceable(20) %24, i8 0, i64 20, i1 false)
  store ptr %26, ptr %27, align 8
  %28 = getelementptr inbounds i8, ptr %0, i64 56
  store ptr %25, ptr %28, align 8
  %29 = getelementptr inbounds i8, ptr %0, i64 80
  store i32 8, ptr %29, align 8
  %30 = getelementptr inbounds i8, ptr %0, i64 234154
  %31 = getelementptr inbounds i8, ptr %0, i64 64
  store ptr %30, ptr %31, align 8
  %32 = getelementptr inbounds i8, ptr %0, i64 72
  store ptr %30, ptr %32, align 8
  %33 = getelementptr inbounds i8, ptr %0, i64 132
  store i32 0, ptr %33, align 4
  %34 = getelementptr inbounds i8, ptr %0, i64 108
  store i32 0, ptr %34, align 4
  %35 = getelementptr inbounds i8, ptr %0, i64 104
  store i32 0, ptr %35, align 8
  %36 = getelementptr inbounds i8, ptr %0, i64 100
  store i32 0, ptr %36, align 4
  %37 = getelementptr inbounds i8, ptr %0, i64 32
  store <4 x i32> <i32 1, i32 0, i32 0, i32 0>, ptr %37, align 8
  %38 = getelementptr inbounds i8, ptr %0, i64 136
  %39 = getelementptr inbounds i8, ptr %0, i64 176
  %40 = getelementptr inbounds i8, ptr %0, i64 33226
  tail call void @llvm.memset.p0.i64(ptr noundef nonnull align 8 dereferenceable(36) %38, i8 0, i64 36, i1 false)
  tail call void @llvm.memset.p0.i64(ptr noundef nonnull align 8 dereferenceable(24) %39, i8 0, i64 24, i1 false)
  tail call void @llvm.memset.p0.i64(ptr noundef nonnull align 2 dereferenceable(640) %40, i8 0, i64 640, i1 false)
  ret i32 0
}